; Function Attrs: mustprogress nofree norecurse nosync nounwind memory(readwrite, inaccessiblemem: none) uwtable
define internal void @_ZL10_DoubleAllRSt6vectorIiSaIiEE(ptr nocapture noundef nonnull readonly align 8 dereferenceable(24) %0) #4 {
  %2 = load ptr, ptr %0, align 8
  %3 = getelementptr inbounds nuw i8, ptr %0, i64 8
  %4 = load ptr, ptr %3, align 8
  %.not7 = icmp eq ptr %2, %4
  br i1 %.not7, label %._crit_edge, label %.lr.ph

.lr.ph:                                           ; preds = %1, %.lr.ph
  %.sroa.04.08 = phi ptr [ %7, %.lr.ph ], [ %2, %1 ]
  %5 = load i32, ptr %.sroa.04.08, align 4
  %6 = shl nsw i32 %5, 1
  store i32 %6, ptr %.sroa.04.08, align 4
  %7 = getelementptr inbounds i8, ptr %.sroa.04.08, i64 4
  %.not = icmp eq ptr %7, %4
  br i1 %.not, label %._crit_edge, label %.lr.ph

._crit_edge:                                      ; preds = %.lr.ph, %1
  ret void
}